; Function Attrs: nounwind uwtable
define range(i32 -125, 1) i32 @TLSX_KeyShare_Empty(ptr noundef captures(none) %0) local_unnamed_addr #0 {
  %2 = getelementptr inbounds nuw i8, ptr %0, i64 1224
  %3 = load ptr, ptr %2, align 8, !tbaa !100
  %.not6.i = icmp eq ptr %3, null
  br i1 %.not6.i, label %.loopexit, label %.lr.ph.i

.lr.ph.i:                                         ; preds = %1, %5
  %.07.i = phi ptr [ %7, %5 ], [ %3, %1 ]
  %4 = load i32, ptr %.07.i, align 8, !tbaa !60
  %.not5.i = icmp eq i32 %4, 51
  br i1 %.not5.i, label %TLSX_Find.exit, label %5

5:                                                ; preds = %.lr.ph.i
  %6 = getelementptr inbounds nuw i8, ptr %.07.i, i64 24
  %7 = load ptr, ptr %6, align 8, !tbaa !63
  %.not.i = icmp eq ptr %7, null
  br i1 %.not.i, label %.loopexit, label %.lr.ph.i, !llvm.loop !101

.loopexit:                                        ; preds = %5, %1
  %8 = tail call ptr @wolfSSL_Malloc(i64 noundef 32) #17
  %.not.i.i = icmp eq ptr %8, null
  br i1 %.not.i.i, label %TLSX_Push.exit, label %9

9:                                                ; preds = %.loopexit
  store i32 51, ptr %8, align 8, !tbaa !60
  %10 = getelementptr inbounds nuw i8, ptr %8, i64 8
  store ptr null, ptr %10, align 8, !tbaa !82
  %11 = getelementptr inbounds nuw i8, ptr %8, i64 20
  store i8 0, ptr %11, align 4, !tbaa !83
  %12 = getelementptr inbounds nuw i8, ptr %8, i64 24
  store ptr null, ptr %12, align 8, !tbaa !63
  %13 = load ptr, ptr %2, align 8, !tbaa !59
  store ptr %13, ptr %12, align 8, !tbaa !63
  store ptr %8, ptr %2, align 8, !tbaa !59
  br label %14

14:                                               ; preds = %17, %9
  %.018.i = phi ptr [ %8, %9 ], [ %16, %17 ]
  %15 = getelementptr inbounds nuw i8, ptr %.018.i, i64 24
  %16 = load ptr, ptr %15, align 8, !tbaa !63
  %.not.i10 = icmp eq ptr %16, null
  br i1 %.not.i10, label %TLSX_Push.exit, label %17

17:                                               ; preds = %14
  %18 = load i32, ptr %16, align 8, !tbaa !60
  %19 = icmp eq i32 %18, 51
  br i1 %19, label %20, label %14, !llvm.loop !99

20:                                               ; preds = %17
  %21 = getelementptr inbounds nuw i8, ptr %.018.i, i64 24
  %22 = getelementptr inbounds nuw i8, ptr %16, i64 24
  %23 = load ptr, ptr %22, align 8, !tbaa !63
  store ptr %23, ptr %21, align 8, !tbaa !63
  store ptr null, ptr %22, align 8, !tbaa !63
  tail call void @TLSX_FreeAll(ptr noundef nonnull %16, ptr readnone poison)
  br label %TLSX_Push.exit

TLSX_Find.exit:                                   ; preds = %.lr.ph.i
  %24 = getelementptr inbounds nuw i8, ptr %.07.i, i64 8
  %25 = load ptr, ptr %24, align 8, !tbaa !82
  %.not = icmp eq ptr %25, null
  br i1 %.not, label %TLSX_Push.exit, label %26

26:                                               ; preds = %TLSX_Find.exit
  tail call fastcc void @TLSX_KeyShare_FreeAll(ptr noundef nonnull %25)
  store ptr null, ptr %24, align 8, !tbaa !82
  br label %TLSX_Push.exit

TLSX_Push.exit:                                   ; preds = %14, %20, %.loopexit, %TLSX_Find.exit, %26
  %.0 = phi i32 [ 0, %26 ], [ 0, %TLSX_Find.exit ], [ 0, %20 ], [ -125, %.loopexit ], [ 0, %14 ]
  ret i32 %.0
}